; Function Attrs: mustprogress nounwind null_pointer_is_valid sspstrong uwtable
define void @_ZN10TrafficTabD2Ev(ptr noundef align 8 dereferenceable_or_null(130) initializes((0, 8), (16, 24)) %0) unnamed_addr #6 align 2 personality ptr @__gxx_personality_v0 {
  store ptr getelementptr inbounds nuw inrange(-16, 464) (i8, ptr @_ZTV10TrafficTab, i64 16), ptr %0, align 8
  %2 = getelementptr inbounds nuw i8, ptr %0, i64 16
  store ptr getelementptr inbounds nuw inrange(-16, 64) (i8, ptr @_ZTV10TrafficTab, i64 496), ptr %2, align 8
  %3 = getelementptr inbounds nuw i8, ptr %0, i64 88
  %4 = load ptr, ptr %3, align 8
  %.not.i.i = icmp eq ptr %4, null
  br i1 %.not.i.i, label %_ZN4QMapIiiED2Ev.exit, label %5

5:                                                ; preds = %1
  %6 = atomicrmw sub ptr %4, i32 1 seq_cst, align 4
  %.not2.i.i = icmp eq i32 %6, 1
  br i1 %.not2.i.i, label %7, label %_ZN4QMapIiiED2Ev.exit

7:                                                ; preds = %5
  %8 = load ptr, ptr %3, align 8
  %9 = icmp eq ptr %8, null
  br i1 %9, label %_ZN4QMapIiiED2Ev.exit, label %10

10:                                               ; preds = %7
  %11 = getelementptr inbounds nuw i8, ptr %8, i64 8
  %12 = getelementptr inbounds nuw i8, ptr %8, i64 24
  %13 = load ptr, ptr %12, align 8
  invoke void @_ZNSt8_Rb_treeIiSt4pairIKiiESt10_Select1stIS2_ESt4lessIiESaIS2_EE8_M_eraseEPSt13_Rb_tree_nodeIS2_E(ptr noundef nonnull align 8 dereferenceable_or_null(48) %11, ptr noundef %13)
          to label %_ZN8QMapDataISt3mapIiiSt4lessIiESaISt4pairIKiiEEEED2Ev.exit.i.i unwind label %14

14:                                               ; preds = %10
  %15 = landingpad { ptr, i32 }
          catch ptr null
  %16 = extractvalue { ptr, i32 } %15, 0
  tail call void @__clang_call_terminate(ptr %16) #26
  unreachable

_ZN8QMapDataISt3mapIiiSt4lessIiESaISt4pairIKiiEEEED2Ev.exit.i.i: ; preds = %10
  tail call void @_ZdlPvm(ptr noundef nonnull %8, i64 noundef 56) #27
  br label %_ZN4QMapIiiED2Ev.exit

_ZN4QMapIiiED2Ev.exit:                            ; preds = %1, %5, %7, %_ZN8QMapDataISt3mapIiiSt4lessIiESaISt4pairIKiiEEEED2Ev.exit.i.i
  %17 = getelementptr inbounds nuw i8, ptr %0, i64 64
  %18 = load ptr, ptr %17, align 8
  %.not.i.i.i = icmp eq ptr %18, null
  br i1 %.not.i.i.i, label %_ZN5QListIiED2Ev.exit, label %_ZN17QArrayDataPointerIiE5derefEv.exit.i.i

_ZN17QArrayDataPointerIiE5derefEv.exit.i.i:       ; preds = %_ZN4QMapIiiED2Ev.exit
  %19 = atomicrmw sub ptr %18, i32 1 seq_cst, align 4
  %.not.i.i1 = icmp eq i32 %19, 1
  br i1 %.not.i.i1, label %20, label %_ZN5QListIiED2Ev.exit

20:                                               ; preds = %_ZN17QArrayDataPointerIiE5derefEv.exit.i.i
  %21 = load ptr, ptr %17, align 8
  tail call void @_ZN10QArrayData10deallocateEPS_xx(ptr noundef %21, i64 noundef 4, i64 noundef 8) #25
  br label %_ZN5QListIiED2Ev.exit

_ZN5QListIiED2Ev.exit:                            ; preds = %_ZN4QMapIiiED2Ev.exit, %_ZN17QArrayDataPointerIiE5derefEv.exit.i.i, %20
  store ptr getelementptr inbounds nuw inrange(-16, 464) (i8, ptr @_ZTV19DetachableTabWidget, i64 16), ptr %0, align 8
  store ptr getelementptr inbounds nuw inrange(-16, 64) (i8, ptr @_ZTV19DetachableTabWidget, i64 496), ptr %2, align 8
  %22 = getelementptr inbounds nuw i8, ptr %0, i64 40
  %23 = load ptr, ptr %22, align 8
  %.not.i.i.i.i = icmp eq ptr %23, null
  br i1 %.not.i.i.i.i, label %_ZN19DetachableTabWidgetD2Ev.exit, label %_ZN17QArrayDataPointerIDsE5derefEv.exit.i.i.i

_ZN17QArrayDataPointerIDsE5derefEv.exit.i.i.i:    ; preds = %_ZN5QListIiED2Ev.exit
  %24 = atomicrmw sub ptr %23, i32 1 seq_cst, align 4
  %.not.i.i.i2 = icmp eq i32 %24, 1
  br i1 %.not.i.i.i2, label %25, label %_ZN19DetachableTabWidgetD2Ev.exit

25:                                               ; preds = %_ZN17QArrayDataPointerIDsE5derefEv.exit.i.i.i
  %26 = load ptr, ptr %22, align 8
  tail call void @_ZN10QArrayData10deallocateEPS_xx(ptr noundef %26, i64 noundef 2, i64 noundef 8) #25
  br label %_ZN19DetachableTabWidgetD2Ev.exit

_ZN19DetachableTabWidgetD2Ev.exit:                ; preds = %_ZN5QListIiED2Ev.exit, %_ZN17QArrayDataPointerIDsE5derefEv.exit.i.i.i, %25
  tail call void @_ZN10QTabWidgetD2Ev(ptr noundef align 8 dereferenceable_or_null(64) %0) #25
  ret void
}